target datalayout = "e-m:e-p270:32:32-p271:32:32-p272:64:64-i64:64-i128:128-f80:128-n8:16:32:64-S128"
target triple = "x86_64-pc-linux-gnu"

%struct.FunctionCallInfoBaseData = type { ptr, ptr, ptr, i32, i8, i16, [0 x %struct.NullableDatum] }
%struct.NullableDatum = type { i64, i8 }
%struct.BrinValues = type { i16, i8, i8, ptr, i64, ptr, ptr }
%struct.BrinDesc = type { ptr, ptr, ptr, ptr, i32, [0 x ptr] }
%struct.FormData_pg_attribute = type { i32, %struct.nameData, i32, i16, i16, i32, i16, i8, i8, i8, i8, i8, i8, i8, i8, i8, i8, i8, i16, i32 }
%struct.nameData = type { [64 x i8] }
%struct.TupleDescData = type { i32, i32, i32, i32, ptr, [0 x %struct.CompactAttribute] }
%struct.CompactAttribute = type { i32, i16, i8, i8, i8, i8, i8, i8, i8 }

; Function Attrs: inlinehint nounwind uwtable
define internal ptr @TupleDescAttr(ptr noundef %0, i32 noundef %1) #2 {
  %3 = alloca ptr, align 8
  %4 = alloca i32, align 4
  %5 = alloca ptr, align 8
  store ptr %0, ptr %3, align 8
  store i32 %1, ptr %4, align 4
  call void @llvm.lifetime.start.p0(i64 8, ptr %5) #5
  %6 = load ptr, ptr %3, align 8
  %7 = load ptr, ptr %3, align 8
  %8 = getelementptr inbounds nuw %struct.TupleDescData, ptr %7, i32 0, i32 0
  %9 = load i32, ptr %8, align 8
  %10 = sext i32 %9 to i64
  %11 = mul i64 %10, 16
  %12 = add i64 24, %11
  %13 = getelementptr inbounds nuw i8, ptr %6, i64 %12
  store ptr %13, ptr %5, align 8
  %14 = load ptr, ptr %5, align 8
  %15 = load i32, ptr %4, align 4
  %16 = sext i32 %15 to i64
  %17 = getelementptr inbounds %struct.FormData_pg_attribute, ptr %14, i64 %16
  call void @llvm.lifetime.end.p0(i64 8, ptr %5) #5
  ret ptr %17
}

; Function Attrs: inlinehint nounwind uwtable
define internal ptr @DatumGetPointer(i64 noundef %0) #2 {
  %2 = alloca i64, align 8
  store i64 %0, ptr %2, align 8
  %3 = load i64, ptr %2, align 8
  %4 = inttoptr i64 %3 to ptr
  ret ptr %4
}

; Function Attrs: nounwind uwtable
define dso_local i64 @brin_minmax_union(ptr noundef %0) #0 {
  %2 = alloca ptr, align 8
  %3 = alloca ptr, align 8
  %4 = alloca ptr, align 8
  %5 = alloca ptr, align 8
  %6 = alloca i32, align 4
  %7 = alloca i16, align 2
  %8 = alloca ptr, align 8
  %9 = alloca ptr, align 8
  %10 = alloca i8, align 1
  store ptr %0, ptr %2, align 8
  call void @llvm.lifetime.start.p0(i64 8, ptr %3) #5
  %11 = load ptr, ptr %2, align 8
  %12 = getelementptr inbounds nuw %struct.FunctionCallInfoBaseData, ptr %11, i32 0, i32 6
  %13 = getelementptr inbounds [0 x %struct.NullableDatum], ptr %12, i64 0, i64 0
  %14 = getelementptr inbounds nuw %struct.NullableDatum, ptr %13, i32 0, i32 0
  %15 = load i64, ptr %14, align 8
  %16 = call ptr @DatumGetPointer(i64 noundef %15)
  store ptr %16, ptr %3, align 8
  call void @llvm.lifetime.start.p0(i64 8, ptr %4) #5
  %17 = load ptr, ptr %2, align 8
  %18 = getelementptr inbounds nuw %struct.FunctionCallInfoBaseData, ptr %17, i32 0, i32 6
  %19 = getelementptr inbounds [0 x %struct.NullableDatum], ptr %18, i64 0, i64 1
  %20 = getelementptr inbounds nuw %struct.NullableDatum, ptr %19, i32 0, i32 0
  %21 = load i64, ptr %20, align 8
  %22 = call ptr @DatumGetPointer(i64 noundef %21)
  store ptr %22, ptr %4, align 8
  call void @llvm.lifetime.start.p0(i64 8, ptr %5) #5
  %23 = load ptr, ptr %2, align 8
  %24 = getelementptr inbounds nuw %struct.FunctionCallInfoBaseData, ptr %23, i32 0, i32 6
  %25 = getelementptr inbounds [0 x %struct.NullableDatum], ptr %24, i64 0, i64 2
  %26 = getelementptr inbounds nuw %struct.NullableDatum, ptr %25, i32 0, i32 0
  %27 = load i64, ptr %26, align 8
  %28 = call ptr @DatumGetPointer(i64 noundef %27)
  store ptr %28, ptr %5, align 8
  call void @llvm.lifetime.start.p0(i64 4, ptr %6) #5
  %29 = load ptr, ptr %2, align 8
  %30 = getelementptr inbounds nuw %struct.FunctionCallInfoBaseData, ptr %29, i32 0, i32 3
  %31 = load i32, ptr %30, align 8
  store i32 %31, ptr %6, align 4
  call void @llvm.lifetime.start.p0(i64 2, ptr %7) #5
  call void @llvm.lifetime.start.p0(i64 8, ptr %8) #5
  call void @llvm.lifetime.start.p0(i64 8, ptr %9) #5
  call void @llvm.lifetime.start.p0(i64 1, ptr %10) #5
  %32 = load ptr, ptr %4, align 8
  %33 = getelementptr inbounds nuw %struct.BrinValues, ptr %32, i32 0, i32 0
  %34 = load i16, ptr %33, align 8
  store i16 %34, ptr %7, align 2
  %35 = load ptr, ptr %3, align 8
  %36 = getelementptr inbounds nuw %struct.BrinDesc, ptr %35, i32 0, i32 2
  %37 = load ptr, ptr %36, align 8
  %38 = load i16, ptr %7, align 2
  %39 = sext i16 %38 to i32
  %40 = sub i32 %39, 1
  %41 = call ptr @TupleDescAttr(ptr noundef %37, i32 noundef %40)
  store ptr %41, ptr %8, align 8
  %42 = load ptr, ptr %3, align 8
  %43 = load i16, ptr %7, align 2
  %44 = load ptr, ptr %8, align 8
  %45 = getelementptr inbounds nuw %struct.FormData_pg_attribute, ptr %44, i32 0, i32 2
  %46 = load i32, ptr %45, align 4
  %47 = call ptr @minmax_get_strategy_procinfo(ptr noundef %42, i16 noundef zeroext %43, i32 noundef %46, i16 noundef zeroext 1)
  store ptr %47, ptr %9, align 8
  %48 = load ptr, ptr %9, align 8
  %49 = load i32, ptr %6, align 4
  %50 = load ptr, ptr %5, align 8
  %51 = getelementptr inbounds nuw %struct.BrinValues, ptr %50, i32 0, i32 3
  %52 = load ptr, ptr %51, align 8
  %53 = getelementptr inbounds i64, ptr %52, i64 0
  %54 = load i64, ptr %53, align 8
  %55 = load ptr, ptr %4, align 8
  %56 = getelementptr inbounds nuw %struct.BrinValues, ptr %55, i32 0, i32 3
  %57 = load ptr, ptr %56, align 8
  %58 = getelementptr inbounds i64, ptr %57, i64 0
  %59 = load i64, ptr %58, align 8
  %60 = call i64 @FunctionCall2Coll(ptr noundef %48, i32 noundef %49, i64 noundef %54, i64 noundef %59)
  %61 = icmp ne i64 %60, 0
  %62 = zext i1 %61 to i8
  store i8 %62, ptr %10, align 1
  %63 = load i8, ptr %10, align 1, !range !4, !noundef !5
  %64 = trunc i8 %63 to i1
  br i1 %64, label %65, label %96

65:                                               ; preds = %1
  %66 = load ptr, ptr %8, align 8
  %67 = getelementptr inbounds nuw %struct.FormData_pg_attribute, ptr %66, i32 0, i32 7
  %68 = load i8, ptr %67, align 2, !range !4, !noundef !5
  %69 = trunc i8 %68 to i1
  br i1 %69, label %77, label %70

70:                                               ; preds = %65
  %71 = load ptr, ptr %4, align 8
  %72 = getelementptr inbounds nuw %struct.BrinValues, ptr %71, i32 0, i32 3
  %73 = load ptr, ptr %72, align 8
  %74 = getelementptr inbounds i64, ptr %73, i64 0
  %75 = load i64, ptr %74, align 8
  %76 = call ptr @DatumGetPointer(i64 noundef %75)
  call void @pfree(ptr noundef %76)
  br label %77

77:                                               ; preds = %70, %65
  %78 = load ptr, ptr %5, align 8
  %79 = getelementptr inbounds nuw %struct.BrinValues, ptr %78, i32 0, i32 3
  %80 = load ptr, ptr %79, align 8
  %81 = getelementptr inbounds i64, ptr %80, i64 0
  %82 = load i64, ptr %81, align 8
  %83 = load ptr, ptr %8, align 8
  %84 = getelementptr inbounds nuw %struct.FormData_pg_attribute, ptr %83, i32 0, i32 7
  %85 = load i8, ptr %84, align 2, !range !4, !noundef !5
  %86 = trunc i8 %85 to i1
  %87 = load ptr, ptr %8, align 8
  %88 = getelementptr inbounds nuw %struct.FormData_pg_attribute, ptr %87, i32 0, i32 3
  %89 = load i16, ptr %88, align 4
  %90 = sext i16 %89 to i32
  %91 = call i64 @datumCopy(i64 noundef %82, i1 noundef zeroext %86, i32 noundef %90)
  %92 = load ptr, ptr %4, align 8
  %93 = getelementptr inbounds nuw %struct.BrinValues, ptr %92, i32 0, i32 3
  %94 = load ptr, ptr %93, align 8
  %95 = getelementptr inbounds i64, ptr %94, i64 0
  store i64 %91, ptr %95, align 8
  br label %96

96:                                               ; preds = %77, %1
  %97 = load ptr, ptr %3, align 8
  %98 = load i16, ptr %7, align 2
  %99 = load ptr, ptr %8, align 8
  %100 = getelementptr inbounds nuw %struct.FormData_pg_attribute, ptr %99, i32 0, i32 2
  %101 = load i32, ptr %100, align 4
  %102 = call ptr @minmax_get_strategy_procinfo(ptr noundef %97, i16 noundef zeroext %98, i32 noundef %101, i16 noundef zeroext 5)
  store ptr %102, ptr %9, align 8
  %103 = load ptr, ptr %9, align 8
  %104 = load i32, ptr %6, align 4
  %105 = load ptr, ptr %5, align 8
  %106 = getelementptr inbounds nuw %struct.BrinValues, ptr %105, i32 0, i32 3
  %107 = load ptr, ptr %106, align 8
  %108 = getelementptr inbounds i64, ptr %107, i64 1
  %109 = load i64, ptr %108, align 8
  %110 = load ptr, ptr %4, align 8
  %111 = getelementptr inbounds nuw %struct.BrinValues, ptr %110, i32 0, i32 3
  %112 = load ptr, ptr %111, align 8
  %113 = getelementptr inbounds i64, ptr %112, i64 1
  %114 = load i64, ptr %113, align 8
  %115 = call i64 @FunctionCall2Coll(ptr noundef %103, i32 noundef %104, i64 noundef %109, i64 noundef %114)
  %116 = icmp ne i64 %115, 0
  %117 = zext i1 %116 to i8
  store i8 %117, ptr %10, align 1
  %118 = load i8, ptr %10, align 1, !range !4, !noundef !5
  %119 = trunc i8 %118 to i1
  br i1 %119, label %120, label %151

120:                                              ; preds = %96
  %121 = load ptr, ptr %8, align 8
  %122 = getelementptr inbounds nuw %struct.FormData_pg_attribute, ptr %121, i32 0, i32 7
  %123 = load i8, ptr %122, align 2, !range !4, !noundef !5
  %124 = trunc i8 %123 to i1
  br i1 %124, label %132, label %125

125:                                              ; preds = %120
  %126 = load ptr, ptr %4, align 8
  %127 = getelementptr inbounds nuw %struct.BrinValues, ptr %126, i32 0, i32 3
  %128 = load ptr, ptr %127, align 8
  %129 = getelementptr inbounds i64, ptr %128, i64 1
  %130 = load i64, ptr %129, align 8
  %131 = call ptr @DatumGetPointer(i64 noundef %130)
  call void @pfree(ptr noundef %131)
  br label %132

132:                                              ; preds = %125, %120
  %133 = load ptr, ptr %5, align 8
  %134 = getelementptr inbounds nuw %struct.BrinValues, ptr %133, i32 0, i32 3
  %135 = load ptr, ptr %134, align 8
  %136 = getelementptr inbounds i64, ptr %135, i64 1
  %137 = load i64, ptr %136, align 8
  %138 = load ptr, ptr %8, align 8
  %139 = getelementptr inbounds nuw %struct.FormData_pg_attribute, ptr %138, i32 0, i32 7
  %140 = load i8, ptr %139, align 2, !range !4, !noundef !5
  %141 = trunc i8 %140 to i1
  %142 = load ptr, ptr %8, align 8
  %143 = getelementptr inbounds nuw %struct.FormData_pg_attribute, ptr %142, i32 0, i32 3
  %144 = load i16, ptr %143, align 4
  %145 = sext i16 %144 to i32
  %146 = call i64 @datumCopy(i64 noundef %137, i1 noundef zeroext %141, i32 noundef %145)
  %147 = load ptr, ptr %4, align 8
  %148 = getelementptr inbounds nuw %struct.BrinValues, ptr %147, i32 0, i32 3
  %149 = load ptr, ptr %148, align 8
  %150 = getelementptr inbounds i64, ptr %149, i64 1
  store i64 %146, ptr %150, align 8
  br label %151

151:                                              ; preds = %132, %96
  call void @llvm.lifetime.end.p0(i64 1, ptr %10) #5
  call void @llvm.lifetime.end.p0(i64 8, ptr %9) #5
  call void @llvm.lifetime.end.p0(i64 8, ptr %8) #5
  call void @llvm.lifetime.end.p0(i64 2, ptr %7) #5
  call void @llvm.lifetime.end.p0(i64 4, ptr %6) #5
  call void @llvm.lifetime.end.p0(i64 8, ptr %5) #5
  call void @llvm.lifetime.end.p0(i64 8, ptr %4) #5
  call void @llvm.lifetime.end.p0(i64 8, ptr %3) #5
  ret i64 0
}