; Function Attrs: nounwind uwtable
define dso_local noundef i64 @brin_minmax_union(ptr noundef readonly captures(none) %0) local_unnamed_addr #0 {
  %2 = getelementptr inbounds nuw i8, ptr %0, i64 32
  %3 = load i64, ptr %2, align 8
  %4 = inttoptr i64 %3 to ptr
  %5 = getelementptr inbounds nuw i8, ptr %0, i64 48
  %6 = load i64, ptr %5, align 8
  %7 = inttoptr i64 %6 to ptr
  %8 = getelementptr inbounds nuw i8, ptr %0, i64 64
  %9 = load i64, ptr %8, align 8
  %10 = inttoptr i64 %9 to ptr
  %11 = getelementptr inbounds nuw i8, ptr %0, i64 24
  %12 = load i32, ptr %11, align 8
  %13 = load i16, ptr %7, align 8
  %14 = getelementptr inbounds nuw i8, ptr %4, i64 16
  %15 = load ptr, ptr %14, align 8
  %16 = sext i16 %13 to i64
  %17 = load i32, ptr %15, align 8
  %18 = sext i32 %17 to i64
  %19 = shl nsw i64 %18, 4
  %20 = getelementptr i8, ptr %15, i64 %19
  %21 = getelementptr i8, ptr %20, i64 -76
  %22 = getelementptr %struct.FormData_pg_attribute, ptr %21, i64 %16
  %23 = getelementptr inbounds nuw i8, ptr %22, i64 68
  %24 = load i32, ptr %23, align 4
  %25 = tail call fastcc ptr @minmax_get_strategy_procinfo(ptr noundef %4, i16 noundef zeroext %13, i32 noundef %24, i16 noundef zeroext 1)
  %26 = getelementptr inbounds nuw i8, ptr %10, i64 8
  %27 = load ptr, ptr %26, align 8
  %28 = load i64, ptr %27, align 8
  %29 = getelementptr inbounds nuw i8, ptr %7, i64 8
  %30 = load ptr, ptr %29, align 8
  %31 = load i64, ptr %30, align 8
  %32 = tail call i64 @FunctionCall2Coll(ptr noundef nonnull %25, i32 noundef %12, i64 noundef %28, i64 noundef %31) #4
  %.not = icmp eq i64 %32, 0
  br i1 %.not, label %49, label %33

33:                                               ; preds = %1
  %34 = getelementptr inbounds nuw i8, ptr %22, i64 82
  %35 = load i8, ptr %34, align 2, !range !4, !noundef !5
  %36 = trunc nuw i8 %35 to i1
  br i1 %36, label %41, label %37

37:                                               ; preds = %33
  %38 = load ptr, ptr %29, align 8
  %39 = load i64, ptr %38, align 8
  %40 = inttoptr i64 %39 to ptr
  tail call void @pfree(ptr noundef %40) #4
  %.pre = load i8, ptr %34, align 2, !range !4
  %.pre37 = trunc nuw i8 %.pre to i1
  br label %41

41:                                               ; preds = %37, %33
  %.pre-phi38 = phi i1 [ %.pre37, %37 ], [ true, %33 ]
  %42 = load ptr, ptr %26, align 8
  %43 = load i64, ptr %42, align 8
  %44 = getelementptr inbounds nuw i8, ptr %22, i64 72
  %45 = load i16, ptr %44, align 4
  %46 = sext i16 %45 to i32
  %47 = tail call i64 @datumCopy(i64 noundef %43, i1 noundef zeroext %.pre-phi38, i32 noundef %46) #4
  %48 = load ptr, ptr %29, align 8
  store i64 %47, ptr %48, align 8
  br label %49

49:                                               ; preds = %41, %1
  %50 = load i32, ptr %23, align 4
  %51 = tail call fastcc ptr @minmax_get_strategy_procinfo(ptr noundef nonnull %4, i16 noundef zeroext %13, i32 noundef %50, i16 noundef zeroext 5)
  %52 = load ptr, ptr %26, align 8
  %53 = getelementptr inbounds nuw i8, ptr %52, i64 8
  %54 = load i64, ptr %53, align 8
  %55 = load ptr, ptr %29, align 8
  %56 = getelementptr inbounds nuw i8, ptr %55, i64 8
  %57 = load i64, ptr %56, align 8
  %58 = tail call i64 @FunctionCall2Coll(ptr noundef nonnull %51, i32 noundef %12, i64 noundef %54, i64 noundef %57) #4
  %.not34 = icmp eq i64 %58, 0
  br i1 %.not34, label %78, label %59

59:                                               ; preds = %49
  %60 = getelementptr inbounds nuw i8, ptr %22, i64 82
  %61 = load i8, ptr %60, align 2, !range !4, !noundef !5
  %62 = trunc nuw i8 %61 to i1
  br i1 %62, label %68, label %63

63:                                               ; preds = %59
  %64 = load ptr, ptr %29, align 8
  %65 = getelementptr inbounds nuw i8, ptr %64, i64 8
  %66 = load i64, ptr %65, align 8
  %67 = inttoptr i64 %66 to ptr
  tail call void @pfree(ptr noundef %67) #4
  %.pre35 = load i8, ptr %60, align 2, !range !4
  %.pre36 = trunc nuw i8 %.pre35 to i1
  br label %68

68:                                               ; preds = %63, %59
  %.pre-phi = phi i1 [ %.pre36, %63 ], [ true, %59 ]
  %69 = load ptr, ptr %26, align 8
  %70 = getelementptr inbounds nuw i8, ptr %69, i64 8
  %71 = load i64, ptr %70, align 8
  %72 = getelementptr inbounds nuw i8, ptr %22, i64 72
  %73 = load i16, ptr %72, align 4
  %74 = sext i16 %73 to i32
  %75 = tail call i64 @datumCopy(i64 noundef %71, i1 noundef zeroext %.pre-phi, i32 noundef %74) #4
  %76 = load ptr, ptr %29, align 8
  %77 = getelementptr inbounds nuw i8, ptr %76, i64 8
  store i64 %75, ptr %77, align 8
  br label %78

78:                                               ; preds = %68, %49
  ret i64 0
}